target datalayout = "e-m:e-p270:32:32-p271:32:32-p272:64:64-i64:64-i128:128-f80:128-n8:16:32:64-S128"
target triple = "x86_64-pc-linux-gnu"

%struct.ec_group_st = type { ptr, ptr, %struct.bignum_st, %struct.bignum_st, i32, ptr, %struct.bignum_st, %struct.bignum_st, %struct.bignum_st, i32, ptr, %struct.bignum_st }
%struct.bignum_st = type { ptr, i32, i32, i32, i32 }
%struct.ec_method_st = type { ptr, ptr, ptr, ptr, ptr, ptr, ptr, ptr, ptr, ptr, ptr }

; Function Attrs: nounwind uwtable
define hidden i32 @ec_GFp_simple_group_get_curve(ptr noundef %0, ptr noundef %1, ptr noundef %2, ptr noundef %3, ptr noundef %4) #0 {
  %6 = alloca i32, align 4
  %7 = alloca ptr, align 8
  %8 = alloca ptr, align 8
  %9 = alloca ptr, align 8
  %10 = alloca ptr, align 8
  %11 = alloca ptr, align 8
  %12 = alloca i32, align 4
  %13 = alloca ptr, align 8
  %14 = alloca i32, align 4
  store ptr %0, ptr %7, align 8, !tbaa !6
  store ptr %1, ptr %8, align 8, !tbaa !19
  store ptr %2, ptr %9, align 8, !tbaa !19
  store ptr %3, ptr %10, align 8, !tbaa !19
  store ptr %4, ptr %11, align 8, !tbaa !21
  call void @llvm.lifetime.start.p0(i64 4, ptr %12) #6
  store i32 0, ptr %12, align 4, !tbaa !23
  call void @llvm.lifetime.start.p0(i64 8, ptr %13) #6
  store ptr null, ptr %13, align 8, !tbaa !21
  %15 = load ptr, ptr %8, align 8, !tbaa !19
  %16 = icmp ne ptr %15, null
  br i1 %16, label %17, label %24

17:                                               ; preds = %5
  %18 = load ptr, ptr %8, align 8, !tbaa !19
  %19 = load ptr, ptr %7, align 8, !tbaa !6
  %20 = getelementptr inbounds nuw %struct.ec_group_st, ptr %19, i32 0, i32 6
  %21 = call ptr @BN_copy(ptr noundef %18, ptr noundef %20)
  %22 = icmp ne ptr %21, null
  br i1 %22, label %24, label %23

23:                                               ; preds = %17
  store i32 0, ptr %6, align 4
  store i32 1, ptr %14, align 4
  br label %107

24:                                               ; preds = %17, %5
  %25 = load ptr, ptr %9, align 8, !tbaa !19
  %26 = icmp ne ptr %25, null
  br i1 %26, label %30, label %27

27:                                               ; preds = %24
  %28 = load ptr, ptr %10, align 8, !tbaa !19
  %29 = icmp ne ptr %28, null
  br i1 %29, label %30, label %103

30:                                               ; preds = %27, %24
  %31 = load ptr, ptr %7, align 8, !tbaa !6
  %32 = getelementptr inbounds nuw %struct.ec_group_st, ptr %31, i32 0, i32 0
  %33 = load ptr, ptr %32, align 8, !tbaa !24
  %34 = getelementptr inbounds nuw %struct.ec_method_st, ptr %33, i32 0, i32 10
  %35 = load ptr, ptr %34, align 8, !tbaa !27
  %36 = icmp ne ptr %35, null
  br i1 %36, label %37, label %81

37:                                               ; preds = %30
  %38 = load ptr, ptr %11, align 8, !tbaa !21
  %39 = icmp eq ptr %38, null
  br i1 %39, label %40, label %46

40:                                               ; preds = %37
  %41 = call ptr @BN_CTX_new()
  store ptr %41, ptr %13, align 8, !tbaa !21
  store ptr %41, ptr %11, align 8, !tbaa !21
  %42 = load ptr, ptr %11, align 8, !tbaa !21
  %43 = icmp eq ptr %42, null
  br i1 %43, label %44, label %45

44:                                               ; preds = %40
  store i32 0, ptr %6, align 4
  store i32 1, ptr %14, align 4
  br label %107

45:                                               ; preds = %40
  br label %46

46:                                               ; preds = %45, %37
  %47 = load ptr, ptr %9, align 8, !tbaa !19
  %48 = icmp ne ptr %47, null
  br i1 %48, label %49, label %63

49:                                               ; preds = %46
  %50 = load ptr, ptr %7, align 8, !tbaa !6
  %51 = getelementptr inbounds nuw %struct.ec_group_st, ptr %50, i32 0, i32 0
  %52 = load ptr, ptr %51, align 8, !tbaa !24
  %53 = getelementptr inbounds nuw %struct.ec_method_st, ptr %52, i32 0, i32 10
  %54 = load ptr, ptr %53, align 8, !tbaa !27
  %55 = load ptr, ptr %7, align 8, !tbaa !6
  %56 = load ptr, ptr %9, align 8, !tbaa !19
  %57 = load ptr, ptr %7, align 8, !tbaa !6
  %58 = getelementptr inbounds nuw %struct.ec_group_st, ptr %57, i32 0, i32 7
  %59 = load ptr, ptr %11, align 8, !tbaa !21
  %60 = call i32 %54(ptr noundef %55, ptr noundef %56, ptr noundef %58, ptr noundef %59)
  %61 = icmp ne i32 %60, 0
  br i1 %61, label %63, label %62

62:                                               ; preds = %49
  br label %104

63:                                               ; preds = %49, %46
  %64 = load ptr, ptr %10, align 8, !tbaa !19
  %65 = icmp ne ptr %64, null
  br i1 %65, label %66, label %80

66:                                               ; preds = %63
  %67 = load ptr, ptr %7, align 8, !tbaa !6
  %68 = getelementptr inbounds nuw %struct.ec_group_st, ptr %67, i32 0, i32 0
  %69 = load ptr, ptr %68, align 8, !tbaa !24
  %70 = getelementptr inbounds nuw %struct.ec_method_st, ptr %69, i32 0, i32 10
  %71 = load ptr, ptr %70, align 8, !tbaa !27
  %72 = load ptr, ptr %7, align 8, !tbaa !6
  %73 = load ptr, ptr %10, align 8, !tbaa !19
  %74 = load ptr, ptr %7, align 8, !tbaa !6
  %75 = getelementptr inbounds nuw %struct.ec_group_st, ptr %74, i32 0, i32 8
  %76 = load ptr, ptr %11, align 8, !tbaa !21
  %77 = call i32 %71(ptr noundef %72, ptr noundef %73, ptr noundef %75, ptr noundef %76)
  %78 = icmp ne i32 %77, 0
  br i1 %78, label %80, label %79

79:                                               ; preds = %66
  br label %104

80:                                               ; preds = %66, %63
  br label %102

81:                                               ; preds = %30
  %82 = load ptr, ptr %9, align 8, !tbaa !19
  %83 = icmp ne ptr %82, null
  br i1 %83, label %84, label %91

84:                                               ; preds = %81
  %85 = load ptr, ptr %9, align 8, !tbaa !19
  %86 = load ptr, ptr %7, align 8, !tbaa !6
  %87 = getelementptr inbounds nuw %struct.ec_group_st, ptr %86, i32 0, i32 7
  %88 = call ptr @BN_copy(ptr noundef %85, ptr noundef %87)
  %89 = icmp ne ptr %88, null
  br i1 %89, label %91, label %90

90:                                               ; preds = %84
  br label %104

91:                                               ; preds = %84, %81
  %92 = load ptr, ptr %10, align 8, !tbaa !19
  %93 = icmp ne ptr %92, null
  br i1 %93, label %94, label %101

94:                                               ; preds = %91
  %95 = load ptr, ptr %10, align 8, !tbaa !19
  %96 = load ptr, ptr %7, align 8, !tbaa !6
  %97 = getelementptr inbounds nuw %struct.ec_group_st, ptr %96, i32 0, i32 8
  %98 = call ptr @BN_copy(ptr noundef %95, ptr noundef %97)
  %99 = icmp ne ptr %98, null
  br i1 %99, label %101, label %100

100:                                              ; preds = %94
  br label %104

101:                                              ; preds = %94, %91
  br label %102

102:                                              ; preds = %101, %80
  br label %103

103:                                              ; preds = %102, %27
  store i32 1, ptr %12, align 4, !tbaa !23
  br label %104

104:                                              ; preds = %103, %100, %90, %79, %62
  %105 = load ptr, ptr %13, align 8, !tbaa !21
  call void @BN_CTX_free(ptr noundef %105)
  %106 = load i32, ptr %12, align 4, !tbaa !23
  store i32 %106, ptr %6, align 4
  store i32 1, ptr %14, align 4
  br label %107

107:                                              ; preds = %104, %44, %23
  call void @llvm.lifetime.end.p0(i64 8, ptr %13) #6
  call void @llvm.lifetime.end.p0(i64 4, ptr %12) #6
  %108 = load i32, ptr %6, align 4
  ret i32 %108
}