; Function Attrs: nounwind uwtable
define hidden range(i32 0, 2) i32 @ec_GFp_simple_group_get_curve(ptr noundef %0, ptr noundef %1, ptr noundef %2, ptr noundef %3, ptr noundef %4) local_unnamed_addr #0 {
  %.not = icmp eq ptr %1, null
  br i1 %.not, label %9, label %6

6:                                                ; preds = %5
  %7 = getelementptr inbounds nuw i8, ptr %0, i64 80
  %8 = tail call ptr @BN_copy(ptr noundef nonnull %1, ptr noundef nonnull %7) #5
  %.not39 = icmp eq ptr %8, null
  br i1 %.not39, label %45, label %9

9:                                                ; preds = %6, %5
  %10 = icmp ne ptr %2, null
  %11 = icmp ne ptr %3, null
  %or.cond = or i1 %10, %11
  br i1 %or.cond, label %12, label %43

12:                                               ; preds = %9
  %13 = load ptr, ptr %0, align 8, !tbaa !17
  %14 = getelementptr inbounds nuw i8, ptr %13, i64 80
  %15 = load ptr, ptr %14, align 8, !tbaa !20
  %.not40 = icmp eq ptr %15, null
  br i1 %.not40, label %35, label %16

16:                                               ; preds = %12
  %17 = icmp eq ptr %4, null
  br i1 %17, label %18, label %21

18:                                               ; preds = %16
  %19 = tail call ptr @BN_CTX_new() #5
  %20 = icmp eq ptr %19, null
  br i1 %20, label %45, label %21

21:                                               ; preds = %18, %16
  %.030 = phi ptr [ %19, %18 ], [ %4, %16 ]
  %.1 = phi ptr [ %19, %18 ], [ null, %16 ]
  br i1 %10, label %22, label %28

22:                                               ; preds = %21
  %23 = load ptr, ptr %0, align 8, !tbaa !17
  %24 = getelementptr inbounds nuw i8, ptr %23, i64 80
  %25 = load ptr, ptr %24, align 8, !tbaa !20
  %26 = getelementptr inbounds nuw i8, ptr %0, i64 104
  %27 = tail call i32 %25(ptr noundef nonnull %0, ptr noundef nonnull %2, ptr noundef nonnull %26, ptr noundef nonnull %.030) #5
  %.not43 = icmp eq i32 %27, 0
  br i1 %.not43, label %44, label %28

28:                                               ; preds = %22, %21
  br i1 %11, label %29, label %43

29:                                               ; preds = %28
  %30 = load ptr, ptr %0, align 8, !tbaa !17
  %31 = getelementptr inbounds nuw i8, ptr %30, i64 80
  %32 = load ptr, ptr %31, align 8, !tbaa !20
  %33 = getelementptr inbounds nuw i8, ptr %0, i64 128
  %34 = tail call i32 %32(ptr noundef nonnull %0, ptr noundef nonnull %3, ptr noundef nonnull %33, ptr noundef nonnull %.030) #5
  %.not44 = icmp eq i32 %34, 0
  br i1 %.not44, label %44, label %43

35:                                               ; preds = %12
  br i1 %10, label %36, label %39

36:                                               ; preds = %35
  %37 = getelementptr inbounds nuw i8, ptr %0, i64 104
  %38 = tail call ptr @BN_copy(ptr noundef nonnull %2, ptr noundef nonnull %37) #5
  %.not41 = icmp eq ptr %38, null
  br i1 %.not41, label %44, label %39

39:                                               ; preds = %36, %35
  br i1 %11, label %40, label %43

40:                                               ; preds = %39
  %41 = getelementptr inbounds nuw i8, ptr %0, i64 128
  %42 = tail call ptr @BN_copy(ptr noundef nonnull %3, ptr noundef nonnull %41) #5
  %.not42 = icmp eq ptr %42, null
  br i1 %.not42, label %44, label %43

43:                                               ; preds = %29, %28, %40, %39, %9
  %.0 = phi ptr [ %.1, %29 ], [ %.1, %28 ], [ null, %40 ], [ null, %39 ], [ null, %9 ]
  br label %44

44:                                               ; preds = %40, %36, %29, %22, %43
  %.029 = phi i32 [ 1, %43 ], [ 0, %29 ], [ 0, %22 ], [ 0, %40 ], [ 0, %36 ]
  %.2 = phi ptr [ %.0, %43 ], [ %.1, %29 ], [ %.1, %22 ], [ null, %40 ], [ null, %36 ]
  tail call void @BN_CTX_free(ptr noundef %.2) #5
  br label %45

45:                                               ; preds = %18, %6, %44
  %.031 = phi i32 [ %.029, %44 ], [ 0, %6 ], [ 0, %18 ]
  ret i32 %.031
}